; Function Attrs: mustprogress uwtable
define void @_ZN2cv7quality10QualityMSE7computeERKNS_11_InputArrayES4_RKNS_12_OutputArrayE(ptr dead_on_unwind noalias writable writeonly sret(%"class.cv::Scalar_") align 8 captures(none) %0, ptr noundef nonnull align 8 dereferenceable(24) %1, ptr noundef nonnull align 8 dereferenceable(24) %2, ptr noundef nonnull align 8 dereferenceable(24) %3) local_unnamed_addr #0 align 2 personality ptr @__gxx_personality_v0 {
  %5 = alloca %"class.cv::_OutputArray", align 8
  %6 = alloca %"class.cv::_OutputArray", align 8
  %7 = alloca %"class.cv::UMat", align 8
  %8 = alloca %"class.cv::UMat", align 8
  %9 = alloca %"struct.std::pair", align 8
  call void @llvm.lifetime.start.p0(i64 80, ptr nonnull %7) #18
  tail call void @llvm.experimental.noalias.scope.decl(metadata !37)
  call void @_ZN2cv7quality13quality_utils11extract_matINS_4UMatEEET_RKNS_11_InputArrayEi(ptr dead_on_unwind nonnull writable sret(%"class.cv::UMat") align 8 %7, ptr noundef nonnull align 8 dereferenceable(24) %1, i32 noundef -1)
  %10 = load i32, ptr %7, align 8, !tbaa !6, !alias.scope !37
  %11 = and i32 %10, 7
  %.off.i = add nsw i32 %11, -4
  %switch.i = icmp ult i32 %.off.i, 3
  %spec.select.i = select i1 %switch.i, i32 6, i32 5
  call void @llvm.lifetime.start.p0(i64 24, ptr nonnull %6) #18, !noalias !37
  %12 = getelementptr inbounds nuw i8, ptr %6, i64 8
  %13 = getelementptr inbounds nuw i8, ptr %6, i64 16
  store i64 0, ptr %13, align 8, !noalias !37
  store i32 34209792, ptr %6, align 8, !tbaa !20, !noalias !37
  store ptr %7, ptr %12, align 8, !tbaa !23, !noalias !37
  invoke void @_ZNK2cv4UMat9convertToERKNS_12_OutputArrayEidd(ptr noundef nonnull align 8 dereferenceable(80) %7, ptr noundef nonnull align 8 dereferenceable(24) %6, i32 noundef %spec.select.i, double noundef 1.000000e+00, double noundef 0.000000e+00)
          to label %_ZN2cv7quality13quality_utils10expand_matINS_4UMatEEET_RKNS_11_InputArrayEi.exit unwind label %14

common.resume:                                    ; preds = %.body, %14
  %common.resume.op = phi { ptr, i32 } [ %15, %14 ], [ %.pn.pn, %.body ]
  resume { ptr, i32 } %common.resume.op

14:                                               ; preds = %4
  %15 = landingpad { ptr, i32 }
          cleanup
  call void @llvm.lifetime.end.p0(i64 24, ptr nonnull %6) #18, !noalias !37
  call void @_ZN2cv4UMatD1Ev(ptr noundef nonnull align 8 dereferenceable(80) %7) #18
  br label %common.resume

_ZN2cv7quality13quality_utils10expand_matINS_4UMatEEET_RKNS_11_InputArrayEi.exit: ; preds = %4
  call void @llvm.lifetime.end.p0(i64 24, ptr nonnull %6) #18, !noalias !37
  call void @llvm.lifetime.start.p0(i64 80, ptr nonnull %8) #18
  call void @llvm.experimental.noalias.scope.decl(metadata !40)
  invoke void @_ZN2cv7quality13quality_utils11extract_matINS_4UMatEEET_RKNS_11_InputArrayEi(ptr dead_on_unwind nonnull writable sret(%"class.cv::UMat") align 8 %8, ptr noundef nonnull align 8 dereferenceable(24) %2, i32 noundef -1)
          to label %.noexc unwind label %28

.noexc:                                           ; preds = %_ZN2cv7quality13quality_utils10expand_matINS_4UMatEEET_RKNS_11_InputArrayEi.exit
  %16 = load i32, ptr %8, align 8, !tbaa !6, !alias.scope !40
  %17 = and i32 %16, 7
  %.off.i9 = add nsw i32 %17, -4
  %switch.i10 = icmp ult i32 %.off.i9, 3
  %spec.select.i11 = select i1 %switch.i10, i32 6, i32 5
  call void @llvm.lifetime.start.p0(i64 24, ptr nonnull %5) #18, !noalias !40
  %18 = getelementptr inbounds nuw i8, ptr %5, i64 8
  %19 = getelementptr inbounds nuw i8, ptr %5, i64 16
  store i64 0, ptr %19, align 8, !noalias !40
  store i32 34209792, ptr %5, align 8, !tbaa !20, !noalias !40
  store ptr %8, ptr %18, align 8, !tbaa !23, !noalias !40
  invoke void @_ZNK2cv4UMat9convertToERKNS_12_OutputArrayEidd(ptr noundef nonnull align 8 dereferenceable(80) %8, ptr noundef nonnull align 8 dereferenceable(24) %5, i32 noundef %spec.select.i11, double noundef 1.000000e+00, double noundef 0.000000e+00)
          to label %22 unwind label %20

20:                                               ; preds = %.noexc
  %21 = landingpad { ptr, i32 }
          cleanup
  call void @llvm.lifetime.end.p0(i64 24, ptr nonnull %5) #18, !noalias !40
  call void @_ZN2cv4UMatD1Ev(ptr noundef nonnull align 8 dereferenceable(80) %8) #18
  br label %.body

22:                                               ; preds = %.noexc
  call void @llvm.lifetime.end.p0(i64 24, ptr nonnull %5) #18, !noalias !40
  call void @llvm.lifetime.start.p0(i64 112, ptr nonnull %9) #18
  invoke fastcc void @_ZN12_GLOBAL__N_17computeERKN2cv4UMatES3_(ptr dead_on_unwind noalias writable align 8 %9, ptr noundef nonnull align 8 dereferenceable(80) %7, ptr noundef nonnull align 8 dereferenceable(80) %8)
          to label %23 unwind label %30

23:                                               ; preds = %22
  %24 = invoke noundef zeroext i1 @_ZNK2cv12_OutputArray6neededEv(ptr noundef nonnull align 8 dereferenceable(24) %3)
          to label %25 unwind label %32

25:                                               ; preds = %23
  br i1 %24, label %26, label %_ZN2cv7Scalar_IdEC2ERKS1_.exit

26:                                               ; preds = %25
  %27 = getelementptr inbounds nuw i8, ptr %9, i64 32
  invoke void @_ZNK2cv12_OutputArray6assignERKNS_4UMatE(ptr noundef nonnull align 8 dereferenceable(24) %3, ptr noundef nonnull align 8 dereferenceable(80) %27)
          to label %_ZN2cv7Scalar_IdEC2ERKS1_.exit unwind label %32

28:                                               ; preds = %_ZN2cv7quality13quality_utils10expand_matINS_4UMatEEET_RKNS_11_InputArrayEi.exit
  %29 = landingpad { ptr, i32 }
          cleanup
  br label %.body

30:                                               ; preds = %22
  %31 = landingpad { ptr, i32 }
          cleanup
  br label %36

32:                                               ; preds = %26, %23
  %33 = landingpad { ptr, i32 }
          cleanup
  %34 = getelementptr inbounds nuw i8, ptr %9, i64 32
  call void @_ZN2cv4UMatD1Ev(ptr noundef nonnull align 8 dereferenceable(80) %34) #18
  br label %36

_ZN2cv7Scalar_IdEC2ERKS1_.exit:                   ; preds = %26, %25
  call void @llvm.memcpy.p0.p0.i64(ptr noundef nonnull align 8 dereferenceable(32) %0, ptr noundef nonnull align 8 dereferenceable(32) %9, i64 32, i1 false), !tbaa !43
  %35 = getelementptr inbounds nuw i8, ptr %9, i64 32
  call void @_ZN2cv4UMatD1Ev(ptr noundef nonnull align 8 dereferenceable(80) %35) #18
  call void @llvm.lifetime.end.p0(i64 112, ptr nonnull %9) #18
  call void @_ZN2cv4UMatD1Ev(ptr noundef nonnull align 8 dereferenceable(80) %8) #18
  call void @llvm.lifetime.end.p0(i64 80, ptr nonnull %8) #18
  call void @_ZN2cv4UMatD1Ev(ptr noundef nonnull align 8 dereferenceable(80) %7) #18
  call void @llvm.lifetime.end.p0(i64 80, ptr nonnull %7) #18
  ret void

36:                                               ; preds = %32, %30
  %.pn = phi { ptr, i32 } [ %33, %32 ], [ %31, %30 ]
  call void @llvm.lifetime.end.p0(i64 112, ptr nonnull %9) #18
  call void @_ZN2cv4UMatD1Ev(ptr noundef nonnull align 8 dereferenceable(80) %8) #18
  br label %.body

.body:                                            ; preds = %28, %20, %36
  %.pn.pn = phi { ptr, i32 } [ %.pn, %36 ], [ %29, %28 ], [ %21, %20 ]
  call void @llvm.lifetime.end.p0(i64 80, ptr nonnull %8) #18
  call void @_ZN2cv4UMatD1Ev(ptr noundef nonnull align 8 dereferenceable(80) %7) #18
  call void @llvm.lifetime.end.p0(i64 80, ptr nonnull %7) #18
  br label %common.resume
}